target datalayout = "e-m:e-p270:32:32-p271:32:32-p272:64:64-i64:64-i128:128-f80:128-n8:16:32:64-S128"
target triple = "x86_64-pc-linux-gnu"

@.str = private unnamed_addr constant [11 x i8] c"%d us (%d)\00", align 1

; Function Attrs: nounwind null_pointer_is_valid sspstrong uwtable
define internal i32 @besl_to_us(i8 noundef zeroext %0) #3 {
  %2 = alloca i8, align 1
  %3 = alloca i32, align 4
  store i8 %0, ptr %2, align 1
  call void @llvm.lifetime.start.p0(i64 4, ptr %3) #11
  %4 = load i8, ptr %2, align 1
  %5 = zext i8 %4 to i32
  %6 = icmp eq i32 %5, 0
  br i1 %6, label %7, label %8

7:                                                ; preds = %1
  store i32 125, ptr %3, align 4
  br label %28

8:                                                ; preds = %1
  %9 = load i8, ptr %2, align 1
  %10 = zext i8 %9 to i32
  %11 = icmp eq i32 %10, 1
  br i1 %11, label %12, label %13

12:                                               ; preds = %8
  store i32 150, ptr %3, align 4
  br label %27

13:                                               ; preds = %8
  %14 = load i8, ptr %2, align 1
  %15 = zext i8 %14 to i32
  %16 = icmp sle i32 %15, 5
  br i1 %16, label %17, label %21

17:                                               ; preds = %13
  %18 = load i8, ptr %2, align 1
  %19 = zext i8 %18 to i32
  %20 = mul i32 100, %19
  store i32 %20, ptr %3, align 4
  br label %26

21:                                               ; preds = %13
  %22 = load i8, ptr %2, align 1
  %23 = zext i8 %22 to i32
  %24 = sub i32 %23, 5
  %25 = mul i32 1000, %24
  store i32 %25, ptr %3, align 4
  br label %26

26:                                               ; preds = %21, %17
  br label %27

27:                                               ; preds = %26, %12
  br label %28

28:                                               ; preds = %27, %7
  %29 = load i32, ptr %3, align 4
  call void @llvm.lifetime.end.p0(i64 4, ptr %3) #11
  ret i32 %29
}

; Function Attrs: null_pointer_is_valid sspstrong uwtable
define hidden void @usb_lpm_besl_str(ptr noundef %0, i32 noundef %1) #0 {
  %3 = alloca ptr, align 8
  %4 = alloca i32, align 4
  store ptr %0, ptr %3, align 8
  store i32 %1, ptr %4, align 4
  %5 = load ptr, ptr %3, align 8
  %6 = load ptr, ptr %3, align 8
  %7 = call i64 @llvm.objectsize.i64.p0(ptr %6, i1 false, i1 true, i1 true)
  %8 = load i32, ptr %4, align 4
  %9 = trunc i32 %8 to i8
  %10 = call i32 @besl_to_us(i8 noundef zeroext %9)
  %11 = load i32, ptr %4, align 4
  %12 = call i32 (ptr, i64, i32, i64, ptr, ...) @__snprintf_chk(ptr noundef %5, i64 noundef 240, i32 noundef 2, i64 noundef %7, ptr noundef @.str, i32 noundef %10, i32 noundef %11)
  ret void
}