; Function Attrs: nofree null_pointer_is_valid sspstrong uwtable
define hidden void @usb_lpm_besl_str(ptr noundef %0, i32 noundef %1) #0 {
  %3 = trunc i32 %1 to i8
  %4 = and i32 %1, 255
  switch i8 %3, label %6 [
    i8 0, label %besl_to_us.exit
    i8 1, label %5
  ]

5:                                                ; preds = %2
  br label %besl_to_us.exit

6:                                                ; preds = %2
  %7 = icmp ult i8 %3, 6
  br i1 %7, label %8, label %10

8:                                                ; preds = %6
  %9 = mul nuw nsw i32 %4, 100
  br label %besl_to_us.exit

10:                                               ; preds = %6
  %11 = mul nuw nsw i32 %4, 1000
  %12 = add nsw i32 %11, -5000
  br label %besl_to_us.exit

besl_to_us.exit:                                  ; preds = %2, %5, %8, %10
  %.0.i = phi i32 [ 150, %5 ], [ %9, %8 ], [ %12, %10 ], [ 125, %2 ]
  %13 = tail call i32 (ptr, i64, i32, i64, ptr, ...) @__snprintf_chk(ptr noundef %0, i64 noundef 240, i32 noundef 2, i64 noundef -1, ptr noundef nonnull @.str, i32 noundef %.0.i, i32 noundef %1)
  ret void
}